target datalayout = "e-m:e-p270:32:32-p271:32:32-p272:64:64-i64:64-i128:128-f80:128-n8:16:32:64-S128"
target triple = "x86_64-pc-linux-gnu"

%struct._zend_executor_globals = type { %struct._zval_struct, %struct._zval_struct, [32 x ptr], ptr, ptr, %struct._zend_array, %struct._zend_array, ptr, i32, i32, ptr, ptr, ptr, ptr, ptr, ptr, i64, ptr, ptr, i32, i32, i64, i32, i32, i32, i8, i8, %struct.zend_atomic_bool_s, %struct.zend_atomic_bool_s, ptr, i64, ptr, ptr, %struct._zend_array, %struct._zend_array, i32, i8, %struct._zval_struct, %struct._zval_struct, %struct._zend_stack, %struct._zend_stack, %struct._zend_stack, ptr, i32, i32, i64, ptr, ptr, ptr, %struct._zend_objects_store, ptr, ptr, ptr, [3 x %struct._zend_op], ptr, i8, i8, i64, i32, i32, ptr, [16 x %struct._HashTableIterator], ptr, %union._zend_function, %struct._zend_op, %struct._zend_array, i64, %struct.zend_get_gc_buffer, ptr, ptr, ptr, i64, i8, i32, ptr, ptr, i64, %struct._zend_call_stack, i64, i64, [6 x ptr] }
%struct.zend_atomic_bool_s = type { i8 }
%struct._zval_struct = type { %union._zend_value, %union.anon, %union.anon.2 }
%union._zend_value = type { i64 }
%union.anon = type { i32 }
%union.anon.2 = type { i32 }
%struct._zend_stack = type { i32, i32, i32, ptr }
%struct._zend_objects_store = type { ptr, i32, i32, i32 }
%struct._HashTableIterator = type { ptr, i32, i32 }
%union._zend_function = type { %struct._zend_op_array }
%struct._zend_op_array = type { i8, [3 x i8], i32, ptr, ptr, ptr, i32, i32, ptr, ptr, ptr, ptr, i32, i32, i32, i32, ptr, ptr, ptr, ptr, ptr, i32, i32, ptr, ptr, ptr, i32, i32, i32, i32, ptr, ptr, [6 x ptr] }
%struct._zend_op = type { ptr, %union._znode_op, %union._znode_op, %union._znode_op, i32, i32, i8, i8, i8, i8 }
%union._znode_op = type { i32 }
%struct._zend_array = type { %struct._zend_refcounted_h, %union.anon.4, i32, %union.anon.6, i32, i32, i32, i32, i64, ptr }
%struct._zend_refcounted_h = type { i32, %union.anon.3 }
%union.anon.3 = type { i32 }
%union.anon.4 = type { i32 }
%union.anon.6 = type { ptr }
%struct.zend_get_gc_buffer = type { ptr, ptr, ptr }
%struct._zend_call_stack = type { ptr, i64 }
%struct._zend_execute_data = type { ptr, ptr, ptr, ptr, %struct._zval_struct, ptr, ptr, ptr, ptr }
%struct._php_stream = type { ptr, ptr, %struct._php_stream_filter_chain, %struct._php_stream_filter_chain, ptr, ptr, %struct._zval_struct, i16, [16 x i8], i32, ptr, ptr, ptr, ptr, i64, ptr, i64, i64, i64, i64, ptr }
%struct._php_stream_filter_chain = type { ptr, ptr, ptr }
%struct._php_stream_context = type { ptr, %struct._zval_struct, ptr }
%struct._zend_refcounted = type { %struct._zend_refcounted_h }
%struct._zend_resource = type { %struct._zend_refcounted_h, i64, i32, ptr }

@executor_globals = external global %struct._zend_executor_globals, align 8
@.str.26 = private unnamed_addr constant [31 x i8] c"must be a valid stream/context\00", align 1

; Function Attrs: nounwind uwtable
define internal ptr @decode_context_param(ptr noundef %0) #0 {
  %2 = alloca ptr, align 8
  %3 = alloca ptr, align 8
  %4 = alloca ptr, align 8
  store ptr %0, ptr %2, align 8
  store ptr null, ptr %3, align 8
  %5 = load ptr, ptr %2, align 8
  %6 = call i32 @php_le_stream_context()
  %7 = call ptr @zend_fetch_resource_ex(ptr noundef %5, ptr noundef null, i32 noundef %6)
  store ptr %7, ptr %3, align 8
  %8 = load ptr, ptr %3, align 8
  %9 = icmp eq ptr %8, null
  br i1 %9, label %10, label %42

10:                                               ; preds = %1
  %11 = load ptr, ptr %2, align 8
  %12 = call i32 @php_file_le_stream()
  %13 = call i32 @php_file_le_pstream()
  %14 = call ptr @zend_fetch_resource2_ex(ptr noundef %11, ptr noundef null, i32 noundef %12, i32 noundef %13)
  store ptr %14, ptr %4, align 8
  %15 = load ptr, ptr %4, align 8
  %16 = icmp ne ptr %15, null
  br i1 %16, label %17, label %41

17:                                               ; preds = %10
  %18 = load ptr, ptr %4, align 8
  %19 = getelementptr inbounds %struct._php_stream, ptr %18, i32 0, i32 13
  %20 = load ptr, ptr %19, align 8
  %21 = icmp ne ptr %20, null
  br i1 %21, label %22, label %28

22:                                               ; preds = %17
  %23 = load ptr, ptr %4, align 8
  %24 = getelementptr inbounds %struct._php_stream, ptr %23, i32 0, i32 13
  %25 = load ptr, ptr %24, align 8
  %26 = getelementptr inbounds %struct._zend_resource, ptr %25, i32 0, i32 3
  %27 = load ptr, ptr %26, align 8
  br label %29

28:                                               ; preds = %17
  br label %29

29:                                               ; preds = %28, %22
  %30 = phi ptr [ %27, %22 ], [ null, %28 ]
  store ptr %30, ptr %3, align 8
  %31 = load ptr, ptr %3, align 8
  %32 = icmp eq ptr %31, null
  br i1 %32, label %33, label %40

33:                                               ; preds = %29
  %34 = call ptr @php_stream_context_alloc()
  store ptr %34, ptr %3, align 8
  %35 = load ptr, ptr %3, align 8
  %36 = getelementptr inbounds %struct._php_stream_context, ptr %35, i32 0, i32 2
  %37 = load ptr, ptr %36, align 8
  %38 = load ptr, ptr %4, align 8
  %39 = getelementptr inbounds %struct._php_stream, ptr %38, i32 0, i32 13
  store ptr %37, ptr %39, align 8
  br label %40

40:                                               ; preds = %33, %29
  br label %41

41:                                               ; preds = %40, %10
  br label %42

42:                                               ; preds = %41, %1
  %43 = load ptr, ptr %3, align 8
  ret ptr %43
}

; Function Attrs: nounwind uwtable
define hidden void @zif_stream_context_get_options(ptr noundef %0, ptr noundef %1) #0 {
  %3 = alloca ptr, align 8
  %4 = alloca ptr, align 8
  %5 = alloca ptr, align 8
  %6 = alloca i1, align 1
  %7 = alloca ptr, align 8
  %8 = alloca ptr, align 8
  %9 = alloca i8, align 1
  %10 = alloca ptr, align 8
  %11 = alloca ptr, align 8
  %12 = alloca ptr, align 8
  %13 = alloca ptr, align 8
  %14 = alloca i32, align 4
  %15 = alloca i32, align 4
  %16 = alloca i32, align 4
  %17 = alloca i32, align 4
  %18 = alloca i32, align 4
  %19 = alloca ptr, align 8
  %20 = alloca ptr, align 8
  %21 = alloca i32, align 4
  %22 = alloca ptr, align 8
  %23 = alloca i8, align 1
  %24 = alloca i8, align 1
  %25 = alloca i32, align 4
  %26 = alloca ptr, align 8
  %27 = alloca ptr, align 8
  %28 = alloca ptr, align 8
  %29 = alloca i32, align 4
  store ptr %0, ptr %10, align 8
  store ptr %1, ptr %11, align 8
  br label %30

30:                                               ; preds = %2
  store i32 0, ptr %14, align 4
  store i32 1, ptr %15, align 4
  store i32 1, ptr %16, align 4
  %31 = load ptr, ptr %10, align 8
  %32 = getelementptr inbounds %struct._zend_execute_data, ptr %31, i32 0, i32 4
  %33 = getelementptr inbounds %struct._zval_struct, ptr %32, i32 0, i32 2
  %34 = load i32, ptr %33, align 4
  store i32 %34, ptr %17, align 4
  store i32 0, ptr %18, align 4
  store ptr null, ptr %20, align 8
  store i32 0, ptr %21, align 4
  store ptr null, ptr %22, align 8
  store i8 0, ptr %23, align 1
  store i8 0, ptr %24, align 1
  store i32 0, ptr %25, align 4
  br label %35

35:                                               ; preds = %30
  %36 = load i32, ptr %17, align 4
  %37 = load i32, ptr %15, align 4
  %38 = icmp ult i32 %36, %37
  %39 = xor i1 %38, true
  %40 = xor i1 %39, true
  %41 = zext i1 %40 to i32
  %42 = sext i32 %41 to i64
  %43 = icmp ne i64 %42, 0
  br i1 %43, label %53, label %44

44:                                               ; preds = %35
  %45 = load i32, ptr %17, align 4
  %46 = load i32, ptr %16, align 4
  %47 = icmp ugt i32 %45, %46
  %48 = xor i1 %47, true
  %49 = xor i1 %48, true
  %50 = zext i1 %49 to i32
  %51 = sext i32 %50 to i64
  %52 = icmp ne i64 %51, 0
  br i1 %52, label %53, label %56

53:                                               ; preds = %44, %35
  %54 = load i32, ptr %15, align 4
  %55 = load i32, ptr %16, align 4
  call void @zend_wrong_parameters_count_error(i32 noundef %54, i32 noundef %55)
  store i32 1, ptr %25, align 4
  br label %140

56:                                               ; preds = %44
  %57 = load ptr, ptr %10, align 8
  %58 = getelementptr inbounds %struct._zval_struct, ptr %57, i64 4
  store ptr %58, ptr %19, align 8
  %59 = load i32, ptr %18, align 4
  %60 = add i32 %59, 1
  store i32 %60, ptr %18, align 4
  %61 = load i32, ptr %18, align 4
  %62 = load i32, ptr %15, align 4
  %63 = icmp ule i32 %61, %62
  br i1 %63, label %69, label %64

64:                                               ; preds = %56
  %65 = load i8, ptr %24, align 1
  %66 = trunc i8 %65 to i1
  %67 = zext i1 %66 to i32
  %68 = icmp eq i32 %67, 1
  br label %69

69:                                               ; preds = %64, %56
  %70 = phi i1 [ true, %56 ], [ %68, %64 ]
  call void @llvm.assume(i1 %70)
  %71 = load i32, ptr %18, align 4
  %72 = load i32, ptr %15, align 4
  %73 = icmp ugt i32 %71, %72
  br i1 %73, label %79, label %74

74:                                               ; preds = %69
  %75 = load i8, ptr %24, align 1
  %76 = trunc i8 %75 to i1
  %77 = zext i1 %76 to i32
  %78 = icmp eq i32 %77, 0
  br label %79

79:                                               ; preds = %74, %69
  %80 = phi i1 [ true, %69 ], [ %78, %74 ]
  call void @llvm.assume(i1 %80)
  %81 = load i8, ptr %24, align 1
  %82 = trunc i8 %81 to i1
  br i1 %82, label %83, label %94

83:                                               ; preds = %79
  %84 = load i32, ptr %18, align 4
  %85 = load i32, ptr %17, align 4
  %86 = icmp ugt i32 %84, %85
  %87 = xor i1 %86, true
  %88 = xor i1 %87, true
  %89 = zext i1 %88 to i32
  %90 = sext i32 %89 to i64
  %91 = icmp ne i64 %90, 0
  br i1 %91, label %92, label %93

92:                                               ; preds = %83
  br label %140

93:                                               ; preds = %83
  br label %94

94:                                               ; preds = %93, %79
  %95 = load ptr, ptr %19, align 8
  %96 = getelementptr inbounds %struct._zval_struct, ptr %95, i32 1
  store ptr %96, ptr %19, align 8
  %97 = load ptr, ptr %19, align 8
  store ptr %97, ptr %20, align 8
  %98 = load ptr, ptr %20, align 8
  store ptr %98, ptr %7, align 8
  store ptr %12, ptr %8, align 8
  store i8 0, ptr %9, align 1
  %99 = load ptr, ptr %7, align 8
  store ptr %99, ptr %4, align 8
  %100 = load ptr, ptr %4, align 8
  %101 = getelementptr inbounds %struct._zval_struct, ptr %100, i32 0, i32 1
  %102 = load i8, ptr %101, align 8
  %103 = zext i8 %102 to i32
  %104 = icmp eq i32 %103, 9
  br i1 %104, label %105, label %108

105:                                              ; preds = %94
  %106 = load ptr, ptr %7, align 8
  %107 = load ptr, ptr %8, align 8
  store ptr %106, ptr %107, align 8
  br label %121

108:                                              ; preds = %94
  %109 = load i8, ptr %9, align 1
  %110 = trunc i8 %109 to i1
  br i1 %110, label %111, label %120

111:                                              ; preds = %108
  %112 = load ptr, ptr %7, align 8
  store ptr %112, ptr %5, align 8
  %113 = load ptr, ptr %5, align 8
  %114 = getelementptr inbounds %struct._zval_struct, ptr %113, i32 0, i32 1
  %115 = load i8, ptr %114, align 8
  %116 = zext i8 %115 to i32
  %117 = icmp eq i32 %116, 1
  br i1 %117, label %118, label %120

118:                                              ; preds = %111
  %119 = load ptr, ptr %8, align 8
  store ptr null, ptr %119, align 8
  br label %121

120:                                              ; preds = %111, %108
  store i1 false, ptr %6, align 1
  br label %122

121:                                              ; preds = %118, %105
  store i1 true, ptr %6, align 1
  br label %122

122:                                              ; preds = %121, %120
  %123 = load i1, ptr %6, align 1
  %124 = xor i1 %123, true
  %125 = xor i1 %124, true
  %126 = xor i1 %125, true
  %127 = zext i1 %126 to i32
  %128 = sext i32 %127 to i64
  %129 = icmp ne i64 %128, 0
  br i1 %129, label %130, label %131

130:                                              ; preds = %122
  store i32 14, ptr %21, align 4
  store i32 9, ptr %25, align 4
  br label %140

131:                                              ; preds = %122
  %132 = load i32, ptr %18, align 4
  %133 = load i32, ptr %16, align 4
  %134 = icmp eq i32 %132, %133
  br i1 %134, label %138, label %135

135:                                              ; preds = %131
  %136 = load i32, ptr %16, align 4
  %137 = icmp eq i32 %136, -1
  br label %138

138:                                              ; preds = %135, %131
  %139 = phi i1 [ true, %131 ], [ %137, %135 ]
  call void @llvm.assume(i1 %139)
  br label %140

140:                                              ; preds = %138, %130, %92, %53
  %141 = load i32, ptr %25, align 4
  %142 = icmp ne i32 %141, 0
  %143 = xor i1 %142, true
  %144 = xor i1 %143, true
  %145 = zext i1 %144 to i32
  %146 = sext i32 %145 to i64
  %147 = icmp ne i64 %146, 0
  br i1 %147, label %148, label %154

148:                                              ; preds = %140
  %149 = load i32, ptr %25, align 4
  %150 = load i32, ptr %18, align 4
  %151 = load ptr, ptr %22, align 8
  %152 = load i32, ptr %21, align 4
  %153 = load ptr, ptr %20, align 8
  call void @zend_wrong_parameter_error(i32 noundef %149, i32 noundef %150, ptr noundef %151, i32 noundef %152, ptr noundef %153)
  br label %194

154:                                              ; preds = %140
  br label %155

155:                                              ; preds = %154
  %156 = load ptr, ptr %12, align 8
  %157 = call ptr @decode_context_param(ptr noundef %156)
  store ptr %157, ptr %13, align 8
  %158 = load ptr, ptr %13, align 8
  %159 = icmp ne ptr %158, null
  br i1 %159, label %165, label %160

160:                                              ; preds = %155
  call void (i32, ptr, ...) @zend_argument_type_error(i32 noundef 1, ptr noundef @.str.26)
  br label %161

161:                                              ; preds = %160
  %162 = load ptr, ptr getelementptr inbounds (%struct._zend_executor_globals, ptr @executor_globals, i32 0, i32 50), align 8
  %163 = icmp ne ptr %162, null
  call void @llvm.assume(i1 %163)
  br label %194

164:                                              ; No predecessors!
  br label %165

165:                                              ; preds = %164, %155
  br label %166

166:                                              ; preds = %165
  %167 = load ptr, ptr %11, align 8
  store ptr %167, ptr %26, align 8
  %168 = load ptr, ptr %13, align 8
  %169 = getelementptr inbounds %struct._php_stream_context, ptr %168, i32 0, i32 1
  store ptr %169, ptr %27, align 8
  %170 = load ptr, ptr %27, align 8
  %171 = getelementptr inbounds %struct._zval_struct, ptr %170, i32 0, i32 0
  %172 = load ptr, ptr %171, align 8
  store ptr %172, ptr %28, align 8
  %173 = load ptr, ptr %27, align 8
  %174 = getelementptr inbounds %struct._zval_struct, ptr %173, i32 0, i32 1
  %175 = load i32, ptr %174, align 8
  store i32 %175, ptr %29, align 4
  br label %176

176:                                              ; preds = %166
  %177 = load ptr, ptr %28, align 8
  %178 = load ptr, ptr %26, align 8
  %179 = getelementptr inbounds %struct._zval_struct, ptr %178, i32 0, i32 0
  store ptr %177, ptr %179, align 8
  %180 = load i32, ptr %29, align 4
  %181 = load ptr, ptr %26, align 8
  %182 = getelementptr inbounds %struct._zval_struct, ptr %181, i32 0, i32 1
  store i32 %180, ptr %182, align 8
  br label %183

183:                                              ; preds = %176
  %184 = load i32, ptr %29, align 4
  %185 = and i32 %184, 65280
  %186 = icmp ne i32 %185, 0
  br i1 %186, label %187, label %193

187:                                              ; preds = %183
  %188 = load ptr, ptr %28, align 8
  %189 = getelementptr inbounds %struct._zend_refcounted, ptr %188, i32 0, i32 0
  store ptr %189, ptr %3, align 8
  %190 = load ptr, ptr %3, align 8
  %191 = load i32, ptr %190, align 4
  %192 = add i32 %191, 1
  store i32 %192, ptr %190, align 4
  br label %193

193:                                              ; preds = %187, %183
  br label %194

194:                                              ; preds = %193, %161, %148
  ret void
}