; Function Attrs: nounwind uwtable
define hidden void @zif_stream_context_get_options(ptr noundef %0, ptr nocapture noundef writeonly %1) local_unnamed_addr #0 {
  %3 = getelementptr inbounds i8, ptr %0, i64 44
  %4 = load i32, ptr %3, align 4
  %cond = icmp eq i32 %4, 1
  br i1 %cond, label %6, label %5

5:                                                ; preds = %2
  tail call void @zend_wrong_parameters_count_error(i32 noundef 1, i32 noundef 1) #10
  br label %10

6:                                                ; preds = %2
  %7 = getelementptr inbounds i8, ptr %0, i64 80
  %8 = getelementptr inbounds i8, ptr %0, i64 88
  %9 = load i8, ptr %8, align 8
  %.not58 = icmp eq i8 %9, 9
  br i1 %.not58, label %11, label %10

10:                                               ; preds = %5, %6
  %.053.ph = phi i32 [ 14, %6 ], [ 0, %5 ]
  %.052.ph = phi i32 [ 9, %6 ], [ 1, %5 ]
  %.051.ph = phi ptr [ %7, %6 ], [ null, %5 ]
  %.050.ph = phi i32 [ 1, %6 ], [ 0, %5 ]
  tail call void @zend_wrong_parameter_error(i32 noundef %.052.ph, i32 noundef %.050.ph, ptr noundef null, i32 noundef %.053.ph, ptr noundef %.051.ph) #10
  br label %41

11:                                               ; preds = %6
  %12 = tail call i32 @php_le_stream_context() #10
  %13 = tail call ptr @zend_fetch_resource_ex(ptr noundef nonnull %7, ptr noundef null, i32 noundef %12) #10
  %14 = icmp eq ptr %13, null
  br i1 %14, label %15, label %31

15:                                               ; preds = %11
  %16 = tail call i32 @php_file_le_stream() #10
  %17 = tail call i32 @php_file_le_pstream() #10
  %18 = tail call ptr @zend_fetch_resource2_ex(ptr noundef nonnull %7, ptr noundef null, i32 noundef %16, i32 noundef %17) #10
  %.not.i = icmp eq ptr %18, null
  br i1 %.not.i, label %decode_context_param.exit, label %19

19:                                               ; preds = %15
  %20 = getelementptr inbounds i8, ptr %18, i64 144
  %21 = load ptr, ptr %20, align 8
  %.not14.i = icmp eq ptr %21, null
  br i1 %.not14.i, label %.thread.i, label %22

22:                                               ; preds = %19
  %23 = getelementptr inbounds i8, ptr %21, i64 24
  %24 = load ptr, ptr %23, align 8
  %25 = icmp eq ptr %24, null
  br i1 %25, label %.thread.i, label %31

.thread.i:                                        ; preds = %22, %19
  %26 = tail call ptr @php_stream_context_alloc() #10
  %27 = getelementptr inbounds i8, ptr %26, i64 24
  %28 = load ptr, ptr %27, align 8
  store ptr %28, ptr %20, align 8
  br label %31

decode_context_param.exit:                        ; preds = %15
  tail call void (i32, ptr, ...) @zend_argument_type_error(i32 noundef 1, ptr noundef nonnull @.str.26) #10
  %29 = load ptr, ptr getelementptr inbounds (%struct._zend_executor_globals, ptr @executor_globals, i64 0, i32 50), align 8
  %30 = icmp ne ptr %29, null
  tail call void @llvm.assume(i1 %30)
  br label %41

31:                                               ; preds = %.thread.i, %22, %11
  %.0.i.ph = phi ptr [ %13, %11 ], [ %24, %22 ], [ %26, %.thread.i ]
  %32 = getelementptr inbounds i8, ptr %.0.i.ph, i64 8
  %33 = load ptr, ptr %32, align 8
  %34 = getelementptr inbounds i8, ptr %.0.i.ph, i64 16
  %35 = load i32, ptr %34, align 8
  store ptr %33, ptr %1, align 8
  %36 = getelementptr inbounds i8, ptr %1, i64 8
  store i32 %35, ptr %36, align 8
  %37 = and i32 %35, 65280
  %.not61 = icmp eq i32 %37, 0
  br i1 %.not61, label %41, label %38

38:                                               ; preds = %31
  %39 = load i32, ptr %33, align 4
  %40 = add i32 %39, 1
  store i32 %40, ptr %33, align 4
  br label %41

41:                                               ; preds = %31, %38, %decode_context_param.exit, %10
  ret void
}